; Function Attrs: mustprogress nofree norecurse nosync nounwind willreturn memory(argmem: read) uwtable
define dso_local { ptr, ptr } @_ZN4llvm9DWARFUnit10getSiblingEPKNS_19DWARFDebugInfoEntryE(ptr noundef nonnull align 8 dereferenceable(448) %0, ptr noundef readonly %1) local_unnamed_addr #8 align 2 {
  %.not.i = icmp eq ptr %1, null
  br i1 %.not.i, label %_ZNK4llvm9DWARFUnit15getSiblingEntryEPKNS_19DWARFDebugInfoEntryE.exit.thread, label %3

3:                                                ; preds = %2
  %4 = getelementptr inbounds nuw i8, ptr %1, i64 12
  %5 = load i32, ptr %4, align 4
  %.not.i.not.i = icmp eq i32 %5, 0
  br i1 %.not.i.not.i, label %_ZNK4llvm9DWARFUnit15getSiblingEntryEPKNS_19DWARFDebugInfoEntryE.exit.thread, label %_ZNK4llvm9DWARFUnit15getSiblingEntryEPKNS_19DWARFDebugInfoEntryE.exit

_ZNK4llvm9DWARFUnit15getSiblingEntryEPKNS_19DWARFDebugInfoEntryE.exit: ; preds = %3
  %6 = getelementptr inbounds nuw i8, ptr %0, i64 288
  %7 = zext i32 %5 to i64
  %8 = load ptr, ptr %6, align 8
  %9 = getelementptr inbounds %"class.llvm::DWARFDebugInfoEntry", ptr %8, i64 %7
  br label %_ZNK4llvm9DWARFUnit15getSiblingEntryEPKNS_19DWARFDebugInfoEntryE.exit.thread

_ZNK4llvm9DWARFUnit15getSiblingEntryEPKNS_19DWARFDebugInfoEntryE.exit.thread: ; preds = %2, %3, %_ZNK4llvm9DWARFUnit15getSiblingEntryEPKNS_19DWARFDebugInfoEntryE.exit
  %.sroa.0.0 = phi ptr [ %0, %_ZNK4llvm9DWARFUnit15getSiblingEntryEPKNS_19DWARFDebugInfoEntryE.exit ], [ null, %3 ], [ null, %2 ]
  %.sroa.4.0 = phi ptr [ %9, %_ZNK4llvm9DWARFUnit15getSiblingEntryEPKNS_19DWARFDebugInfoEntryE.exit ], [ null, %3 ], [ null, %2 ]
  %.fca.0.insert = insertvalue { ptr, ptr } poison, ptr %.sroa.0.0, 0
  %.fca.1.insert = insertvalue { ptr, ptr } %.fca.0.insert, ptr %.sroa.4.0, 1
  ret { ptr, ptr } %.fca.1.insert
}